target datalayout = "e-m:e-p270:32:32-p271:32:32-p272:64:64-i64:64-i128:128-f80:128-n8:16:32:64-S128"
target triple = "x86_64-pc-linux-gnu"

%class.PacketListModel = type <{ %class.QAbstractItemModel, ptr, %class.QList, %class.QList.0, %class.QList.0, %class.QList.0, %class.QList.4, ptr, i32, [4 x i8] }>
%class.QAbstractItemModel = type { %class.QObject }
%class.QObject = type { ptr, %class.QScopedPointer }
%class.QScopedPointer = type { ptr }
%class.QList = type { %struct.QArrayDataPointer }
%struct.QArrayDataPointer = type { ptr, ptr, i64 }
%class.QList.0 = type { %struct.QArrayDataPointer.3 }
%struct.QArrayDataPointer.3 = type { ptr, ptr, i64 }
%class.QList.4 = type { %struct.QArrayDataPointer.7 }
%struct.QArrayDataPointer.7 = type { ptr, ptr, i64 }
%struct.nstime_t = type { i64, i32 }
%class.QModelIndex = type { i32, i32, i64, ptr }
%class.QList.25 = type { %struct.QArrayDataPointer.28 }
%struct.QArrayDataPointer.28 = type { ptr, ptr, i64 }
%struct._capture_file = type { ptr, i32, ptr, ptr, i8, i8, i8, i64, i16, i32, i32, i32, ptr, i32, i64, i32, i32, i32, i32, i8, i32, %struct.nstime_t, i32, ptr, ptr, ptr, i8, i8, i32, ptr, i8, i8, i8, i8, i8, i32, i32, i8, ptr, i32, i32, i8, %struct.packet_provider_data, i32, i32, %struct.epan_column_info, ptr, ptr, ptr, %struct.wtap_rec, %struct.Buffer, ptr, i64, i32 }
%struct.packet_provider_data = type { ptr, ptr, ptr, ptr, ptr, ptr }
%struct.epan_column_info = type { ptr, i32, ptr, ptr, ptr, %struct.col_expr_t, i8, ptr }
%struct.col_expr_t = type { ptr, ptr }
%struct.wtap_rec = type { i32, i32, i32, %struct.nstime_t, i32, %struct.nstime_t, i8, %union.anon, ptr, i8, %struct.Buffer, %struct.Buffer }
%union.anon = type { %struct.wtap_packet_header }
%struct.wtap_packet_header = type { i32, i32, i32, i32, %union.wtap_pseudo_header }
%union.wtap_pseudo_header = type { %struct.erf_mc_phdr }
%struct.erf_mc_phdr = type { %struct.erf_phdr, [16 x %struct.erf_ehdr], %union.anon.30 }
%struct.erf_phdr = type { i64, i8, i8, i16, i16, i16 }
%struct.erf_ehdr = type { i64 }
%union.anon.30 = type { i32 }
%struct.Buffer = type { ptr, i64, i64, i64 }

; Function Attrs: mustprogress nounwind null_pointer_is_valid sspstrong uwtable
define linkonce_odr void @_ZN17QArrayDataPointerI21QPersistentModelIndexEC2Ev(ptr noundef align 8 dereferenceable_or_null(24) %0) unnamed_addr #2 comdat align 2 {
  %2 = alloca ptr, align 8
  store ptr %0, ptr %2, align 8
  %3 = load ptr, ptr %2, align 8
  %4 = getelementptr inbounds nuw %struct.QArrayDataPointer.28, ptr %3, i32 0, i32 0
  store ptr null, ptr %4, align 8
  %5 = getelementptr inbounds nuw %struct.QArrayDataPointer.28, ptr %3, i32 0, i32 1
  store ptr null, ptr %5, align 8
  %6 = getelementptr inbounds nuw %struct.QArrayDataPointer.28, ptr %3, i32 0, i32 2
  store i64 0, ptr %6, align 8
  ret void
}

; Function Attrs: inlinehint mustprogress nounwind null_pointer_is_valid sspstrong uwtable
define linkonce_odr void @_ZN11QModelIndexC2Ev(ptr noundef align 8 dereferenceable_or_null(24) %0) unnamed_addr #6 comdat align 2 {
  %2 = alloca ptr, align 8
  store ptr %0, ptr %2, align 8
  %3 = load ptr, ptr %2, align 8
  %4 = getelementptr inbounds nuw %class.QModelIndex, ptr %3, i32 0, i32 0
  store i32 -1, ptr %4, align 8
  %5 = getelementptr inbounds nuw %class.QModelIndex, ptr %3, i32 0, i32 1
  store i32 -1, ptr %5, align 4
  %6 = getelementptr inbounds nuw %class.QModelIndex, ptr %3, i32 0, i32 2
  store i64 0, ptr %6, align 8
  %7 = getelementptr inbounds nuw %class.QModelIndex, ptr %3, i32 0, i32 3
  store ptr null, ptr %7, align 8
  ret void
}

; Function Attrs: mustprogress nounwind null_pointer_is_valid sspstrong uwtable
define linkonce_odr void @_ZN5QListI21QPersistentModelIndexEC2Ev(ptr noundef align 8 dereferenceable_or_null(24) %0) unnamed_addr #2 comdat align 2 {
  %2 = alloca ptr, align 8
  store ptr %0, ptr %2, align 8
  %3 = load ptr, ptr %2, align 8
  %4 = getelementptr inbounds nuw %class.QList.25, ptr %3, i32 0, i32 0
  call void @_ZN17QArrayDataPointerI21QPersistentModelIndexEC2Ev(ptr noundef align 8 dereferenceable_or_null(24) %4) #24
  ret void
}

; Function Attrs: mustprogress null_pointer_is_valid sspstrong uwtable
define void @_ZN15PacketListModel12resetColumnsEv(ptr noundef align 8 dereferenceable_or_null(156) %0) #0 align 2 personality ptr @__gxx_personality_v0 {
  %2 = alloca ptr, align 8
  %3 = alloca %class.QList.25, align 8
  %4 = alloca ptr, align 8
  %5 = alloca i32, align 4
  %6 = alloca %class.QList.25, align 8
  %7 = alloca %class.QModelIndex, align 8
  store ptr %0, ptr %2, align 8
  %8 = load ptr, ptr %2, align 8
  call void @llvm.lifetime.start.p0(i64 24, ptr %3) #24
  call void @llvm.memset.p0.i64(ptr align 8 %3, i8 0, i64 24, i1 false)
  call void @_ZN5QListI21QPersistentModelIndexEC2Ev(ptr noundef align 8 dereferenceable_or_null(24) %3) #24
  invoke void @_ZN18QAbstractItemModel22layoutAboutToBeChangedERK5QListI21QPersistentModelIndexENS_16LayoutChangeHintE(ptr noundef align 8 dereferenceable_or_null(16) %8, ptr noundef align 8 dereferenceable(24) %3, i32 noundef 0)
          to label %9 unwind label %17

9:                                                ; preds = %1
  call void @_ZN5QListI21QPersistentModelIndexED2Ev(ptr noundef align 8 dereferenceable_or_null(24) %3) #24
  call void @llvm.lifetime.end.p0(i64 24, ptr %3) #24
  %10 = getelementptr inbounds nuw %class.PacketListModel, ptr %8, i32 0, i32 1
  %11 = load ptr, ptr %10, align 8
  %12 = icmp ne ptr %11, null
  br i1 %12, label %13, label %21

13:                                               ; preds = %9
  %14 = getelementptr inbounds nuw %class.PacketListModel, ptr %8, i32 0, i32 1
  %15 = load ptr, ptr %14, align 8
  %16 = getelementptr inbounds nuw %struct._capture_file, ptr %15, i32 0, i32 45
  call void @_ZN16PacketListRecord12resetColumnsEP16epan_column_info(ptr noundef %16)
  br label %21

17:                                               ; preds = %1
  %18 = landingpad { ptr, i32 }
          cleanup
  %19 = extractvalue { ptr, i32 } %18, 0
  store ptr %19, ptr %4, align 8
  %20 = extractvalue { ptr, i32 } %18, 1
  store i32 %20, ptr %5, align 4
  call void @_ZN5QListI21QPersistentModelIndexED2Ev(ptr noundef align 8 dereferenceable_or_null(24) %3) #24
  call void @llvm.lifetime.end.p0(i64 24, ptr %3) #24
  br label %32

21:                                               ; preds = %13, %9
  call void @llvm.lifetime.start.p0(i64 24, ptr %6) #24
  call void @llvm.memset.p0.i64(ptr align 8 %6, i8 0, i64 24, i1 false)
  call void @_ZN5QListI21QPersistentModelIndexEC2Ev(ptr noundef align 8 dereferenceable_or_null(24) %6) #24
  invoke void @_ZN18QAbstractItemModel13layoutChangedERK5QListI21QPersistentModelIndexENS_16LayoutChangeHintE(ptr noundef align 8 dereferenceable_or_null(16) %8, ptr noundef align 8 dereferenceable(24) %6, i32 noundef 0)
          to label %22 unwind label %28

22:                                               ; preds = %21
  call void @_ZN5QListI21QPersistentModelIndexED2Ev(ptr noundef align 8 dereferenceable_or_null(24) %6) #24
  call void @llvm.lifetime.end.p0(i64 24, ptr %6) #24
  call void @llvm.lifetime.start.p0(i64 24, ptr %7) #24
  call void @_ZN11QModelIndexC2Ev(ptr noundef align 8 dereferenceable_or_null(24) %7) #24
  %23 = load ptr, ptr %8, align 8
  %24 = getelementptr inbounds ptr, ptr %23, i64 16
  %25 = load ptr, ptr %24, align 8
  %26 = call noundef i32 %25(ptr noundef align 8 dereferenceable_or_null(156) %8, ptr noundef align 8 dereferenceable(24) %7)
  %27 = sub i32 %26, 1
  call void @_ZN18QAbstractItemModel17headerDataChangedEN2Qt11OrientationEii(ptr noundef align 8 dereferenceable_or_null(16) %8, i32 noundef 1, i32 noundef 0, i32 noundef %27)
  call void @llvm.lifetime.end.p0(i64 24, ptr %7) #24
  ret void

28:                                               ; preds = %21
  %29 = landingpad { ptr, i32 }
          cleanup
  %30 = extractvalue { ptr, i32 } %29, 0
  store ptr %30, ptr %4, align 8
  %31 = extractvalue { ptr, i32 } %29, 1
  store i32 %31, ptr %5, align 4
  call void @_ZN5QListI21QPersistentModelIndexED2Ev(ptr noundef align 8 dereferenceable_or_null(24) %6) #24
  call void @llvm.lifetime.end.p0(i64 24, ptr %6) #24
  br label %32

32:                                               ; preds = %28, %17
  %33 = load ptr, ptr %4, align 8
  %34 = load i32, ptr %5, align 4
  %35 = insertvalue { ptr, i32 } poison, ptr %33, 0
  %36 = insertvalue { ptr, i32 } %35, i32 %34, 1
  resume { ptr, i32 } %36
}