; Function Attrs: mustprogress null_pointer_is_valid sspstrong uwtable
define void @_ZN15PacketListModel12resetColumnsEv(ptr noundef align 8 dereferenceable_or_null(156) %0) local_unnamed_addr #0 align 2 personality ptr @__gxx_personality_v0 {
  %2 = alloca %class.QList.25, align 8
  %3 = alloca %class.QList.25, align 8
  %4 = alloca %class.QModelIndex, align 8
  call void @llvm.lifetime.start.p0(i64 24, ptr nonnull %2) #33
  call void @llvm.memset.p0.i64(ptr noundef nonnull align 8 dereferenceable(24) %2, i8 0, i64 24, i1 false)
  invoke void @_ZN18QAbstractItemModel22layoutAboutToBeChangedERK5QListI21QPersistentModelIndexENS_16LayoutChangeHintE(ptr noundef align 8 dereferenceable_or_null(16) %0, ptr noundef nonnull align 8 dereferenceable(24) %2, i32 noundef 0)
          to label %5 unwind label %20

5:                                                ; preds = %1
  %6 = load ptr, ptr %2, align 8
  %.not.i.i.i = icmp eq ptr %6, null
  br i1 %.not.i.i.i, label %_ZN5QListI21QPersistentModelIndexED2Ev.exit, label %_ZN17QArrayDataPointerI21QPersistentModelIndexE5derefEv.exit.i.i

_ZN17QArrayDataPointerI21QPersistentModelIndexE5derefEv.exit.i.i: ; preds = %5
  %7 = atomicrmw sub ptr %6, i32 1 seq_cst, align 4
  %.not.i.i = icmp eq i32 %7, 1
  br i1 %.not.i.i, label %8, label %_ZN5QListI21QPersistentModelIndexED2Ev.exit

8:                                                ; preds = %_ZN17QArrayDataPointerI21QPersistentModelIndexE5derefEv.exit.i.i
  %9 = getelementptr inbounds nuw i8, ptr %2, i64 8
  %10 = load ptr, ptr %9, align 8
  %11 = getelementptr inbounds nuw i8, ptr %2, i64 16
  %12 = load i64, ptr %11, align 8
  %13 = getelementptr %class.QPersistentModelIndex, ptr %10, i64 %12
  %.idx.mask.i.i.i = and i64 %12, 2305843009213693951
  %.not4.i.i.i.i.i.i = icmp eq i64 %.idx.mask.i.i.i, 0
  br i1 %.not4.i.i.i.i.i.i, label %_ZN9QtPrivate16QGenericArrayOpsI21QPersistentModelIndexE10destroyAllEv.exit.i.i, label %.lr.ph.i.i.i.i.i.i

.lr.ph.i.i.i.i.i.i:                               ; preds = %8, %.lr.ph.i.i.i.i.i.i
  %.05.i.i.i.i.i.i = phi ptr [ %14, %.lr.ph.i.i.i.i.i.i ], [ %10, %8 ]
  call void @_ZN21QPersistentModelIndexD1Ev(ptr noundef align 8 dereferenceable_or_null(8) %.05.i.i.i.i.i.i) #33
  %14 = getelementptr i8, ptr %.05.i.i.i.i.i.i, i64 8
  %.not.i.i.i.i.i.i = icmp eq ptr %14, %13
  br i1 %.not.i.i.i.i.i.i, label %_ZN9QtPrivate16QGenericArrayOpsI21QPersistentModelIndexE10destroyAllEv.exit.i.i, label %.lr.ph.i.i.i.i.i.i, !llvm.loop !21

_ZN9QtPrivate16QGenericArrayOpsI21QPersistentModelIndexE10destroyAllEv.exit.i.i: ; preds = %.lr.ph.i.i.i.i.i.i, %8
  %15 = load ptr, ptr %2, align 8
  call void @_ZN10QArrayData10deallocateEPS_xx(ptr noundef %15, i64 noundef 8, i64 noundef 8) #33
  br label %_ZN5QListI21QPersistentModelIndexED2Ev.exit

_ZN5QListI21QPersistentModelIndexED2Ev.exit:      ; preds = %5, %_ZN17QArrayDataPointerI21QPersistentModelIndexE5derefEv.exit.i.i, %_ZN9QtPrivate16QGenericArrayOpsI21QPersistentModelIndexE10destroyAllEv.exit.i.i
  call void @llvm.lifetime.end.p0(i64 24, ptr nonnull %2) #33
  %16 = getelementptr inbounds nuw i8, ptr %0, i64 16
  %17 = load ptr, ptr %16, align 8
  %.not = icmp eq ptr %17, null
  br i1 %.not, label %22, label %18

18:                                               ; preds = %_ZN5QListI21QPersistentModelIndexED2Ev.exit
  %19 = getelementptr inbounds nuw i8, ptr %17, i64 280
  call void @_ZN16PacketListRecord12resetColumnsEP16epan_column_info(ptr noundef nonnull %19)
  br label %22

20:                                               ; preds = %1
  %21 = landingpad { ptr, i32 }
          cleanup
  call void @_ZN5QListI21QPersistentModelIndexED2Ev(ptr noundef nonnull align 8 dereferenceable_or_null(24) %2) #33
  call void @llvm.lifetime.end.p0(i64 24, ptr nonnull %2) #33
  br label %43

22:                                               ; preds = %18, %_ZN5QListI21QPersistentModelIndexED2Ev.exit
  call void @llvm.lifetime.start.p0(i64 24, ptr nonnull %3) #33
  call void @llvm.memset.p0.i64(ptr noundef nonnull align 8 dereferenceable(24) %3, i8 0, i64 24, i1 false)
  invoke void @_ZN18QAbstractItemModel13layoutChangedERK5QListI21QPersistentModelIndexENS_16LayoutChangeHintE(ptr noundef align 8 dereferenceable_or_null(16) %0, ptr noundef nonnull align 8 dereferenceable(24) %3, i32 noundef 0)
          to label %23 unwind label %41

23:                                               ; preds = %22
  %24 = load ptr, ptr %3, align 8
  %.not.i.i.i5 = icmp eq ptr %24, null
  br i1 %.not.i.i.i5, label %_ZN5QListI21QPersistentModelIndexED2Ev.exit14, label %_ZN17QArrayDataPointerI21QPersistentModelIndexE5derefEv.exit.i.i6

_ZN17QArrayDataPointerI21QPersistentModelIndexE5derefEv.exit.i.i6: ; preds = %23
  %25 = atomicrmw sub ptr %24, i32 1 seq_cst, align 4
  %.not.i.i7 = icmp eq i32 %25, 1
  br i1 %.not.i.i7, label %26, label %_ZN5QListI21QPersistentModelIndexED2Ev.exit14

26:                                               ; preds = %_ZN17QArrayDataPointerI21QPersistentModelIndexE5derefEv.exit.i.i6
  %27 = getelementptr inbounds nuw i8, ptr %3, i64 8
  %28 = load ptr, ptr %27, align 8
  %29 = getelementptr inbounds nuw i8, ptr %3, i64 16
  %30 = load i64, ptr %29, align 8
  %31 = getelementptr %class.QPersistentModelIndex, ptr %28, i64 %30
  %.idx.mask.i.i.i8 = and i64 %30, 2305843009213693951
  %.not4.i.i.i.i.i.i9 = icmp eq i64 %.idx.mask.i.i.i8, 0
  br i1 %.not4.i.i.i.i.i.i9, label %_ZN9QtPrivate16QGenericArrayOpsI21QPersistentModelIndexE10destroyAllEv.exit.i.i13, label %.lr.ph.i.i.i.i.i.i10

.lr.ph.i.i.i.i.i.i10:                             ; preds = %26, %.lr.ph.i.i.i.i.i.i10
  %.05.i.i.i.i.i.i11 = phi ptr [ %32, %.lr.ph.i.i.i.i.i.i10 ], [ %28, %26 ]
  call void @_ZN21QPersistentModelIndexD1Ev(ptr noundef align 8 dereferenceable_or_null(8) %.05.i.i.i.i.i.i11) #33
  %32 = getelementptr i8, ptr %.05.i.i.i.i.i.i11, i64 8
  %.not.i.i.i.i.i.i12 = icmp eq ptr %32, %31
  br i1 %.not.i.i.i.i.i.i12, label %_ZN9QtPrivate16QGenericArrayOpsI21QPersistentModelIndexE10destroyAllEv.exit.i.i13, label %.lr.ph.i.i.i.i.i.i10, !llvm.loop !21

_ZN9QtPrivate16QGenericArrayOpsI21QPersistentModelIndexE10destroyAllEv.exit.i.i13: ; preds = %.lr.ph.i.i.i.i.i.i10, %26
  %33 = load ptr, ptr %3, align 8
  call void @_ZN10QArrayData10deallocateEPS_xx(ptr noundef %33, i64 noundef 8, i64 noundef 8) #33
  br label %_ZN5QListI21QPersistentModelIndexED2Ev.exit14

_ZN5QListI21QPersistentModelIndexED2Ev.exit14:    ; preds = %23, %_ZN17QArrayDataPointerI21QPersistentModelIndexE5derefEv.exit.i.i6, %_ZN9QtPrivate16QGenericArrayOpsI21QPersistentModelIndexE10destroyAllEv.exit.i.i13
  call void @llvm.lifetime.end.p0(i64 24, ptr nonnull %3) #33
  call void @llvm.lifetime.start.p0(i64 24, ptr nonnull %4) #33
  store i32 -1, ptr %4, align 8
  %34 = getelementptr inbounds nuw i8, ptr %4, i64 4
  store i32 -1, ptr %34, align 4
  %35 = getelementptr inbounds nuw i8, ptr %4, i64 8
  call void @llvm.memset.p0.i64(ptr noundef nonnull align 8 dereferenceable(16) %35, i8 0, i64 16, i1 false)
  %36 = load ptr, ptr %0, align 8
  %37 = getelementptr inbounds nuw i8, ptr %36, i64 128
  %38 = load ptr, ptr %37, align 8
  %39 = call noundef i32 %38(ptr noundef align 8 dereferenceable_or_null(156) %0, ptr noundef nonnull align 8 dereferenceable(24) %4)
  %40 = add i32 %39, -1
  call void @_ZN18QAbstractItemModel17headerDataChangedEN2Qt11OrientationEii(ptr noundef align 8 dereferenceable_or_null(16) %0, i32 noundef 1, i32 noundef 0, i32 noundef %40)
  call void @llvm.lifetime.end.p0(i64 24, ptr nonnull %4) #33
  ret void

41:                                               ; preds = %22
  %42 = landingpad { ptr, i32 }
          cleanup
  call void @_ZN5QListI21QPersistentModelIndexED2Ev(ptr noundef nonnull align 8 dereferenceable_or_null(24) %3) #33
  call void @llvm.lifetime.end.p0(i64 24, ptr nonnull %3) #33
  br label %43

43:                                               ; preds = %41, %20
  %.pn = phi { ptr, i32 } [ %42, %41 ], [ %21, %20 ]
  resume { ptr, i32 } %.pn
}